ARM GAS  C:\Users\Ben\AppData\Local\Temp\ccpZ1hzB.s 			page 1


   1              		.cpu cortex-m4
   2              		.eabi_attribute 27, 1
   3              		.eabi_attribute 28, 1
   4              		.eabi_attribute 20, 1
   5              		.eabi_attribute 21, 1
   6              		.eabi_attribute 23, 3
   7              		.eabi_attribute 24, 1
   8              		.eabi_attribute 25, 1
   9              		.eabi_attribute 26, 1
  10              		.eabi_attribute 30, 2
  11              		.eabi_attribute 34, 1
  12              		.eabi_attribute 18, 4
  13              		.file	"process_image.c"
  14              		.text
  15              	.Ltext0:
  16              		.cfi_sections	.debug_frame
  17              		.section	.text.CaptureImage,"ax",%progbits
  18              		.align	1
  19              		.p2align 4,,15
  20              		.syntax unified
  21              		.thumb
  22              		.thumb_func
  23              		.fpu fpv4-sp-d16
  24              		.type	CaptureImage, %function
  25              	CaptureImage:
  26              	.LFB258:
  27              		.file 1 "process_image.c"
  28              		.loc 1 108 0
  29              		.cfi_startproc
  30              		@ Volatile: function does not return.
  31              		@ args = 0, pretend = 0, frame = 8
  32              		@ frame_needed = 0, uses_anonymous_args = 0
  33              	.LVL0:
  34 0000 80B5     		push	{r7, lr}
  35              		.cfi_def_cfa_offset 8
  36              		.cfi_offset 7, -8
  37              		.cfi_offset 14, -4
  38              	.LBB51:
  39              	.LBB52:
  40              		.file 2 "../lib/e-puck2_main-processor/ChibiOS//os/rt/include/chregistry.h"
  41              		.loc 2 135 0
  42 0002 234C     		ldr	r4, .L8
  43              	.LBE52:
  44              	.LBE51:
  45              		.loc 1 108 0
  46 0004 234A     		ldr	r2, .L8+4
  47              	.LBB55:
  48              	.LBB53:
  49              		.loc 2 135 0
  50 0006 A369     		ldr	r3, [r4, #24]
  51 0008 2349     		ldr	r1, .L8+8
  52              	.LBE53:
  53              	.LBE55:
  54              		.loc 1 108 0
  55 000a 1668     		ldr	r6, [r2]
  56              	.LBB56:
  57              	.LBB54:
ARM GAS  C:\Users\Ben\AppData\Local\Temp\ccpZ1hzB.s 			page 2


  58              		.loc 2 135 0
  59 000c 9961     		str	r1, [r3, #24]
  60              	.LBE54:
  61              	.LBE56:
  62              		.loc 1 108 0
  63 000e 86B0     		sub	sp, sp, #24
  64              		.cfi_def_cfa_offset 32
  65              		.loc 1 114 0
  66 0010 0223     		movs	r3, #2
  67 0012 2025     		movs	r5, #32
  68 0014 0A22     		movs	r2, #10
  69 0016 0021     		movs	r1, #0
  70 0018 0093     		str	r3, [sp]
  71              		.loc 1 108 0
  72 001a 0596     		str	r6, [sp, #20]
  73              		.loc 1 114 0
  74 001c 4FF42073 		mov	r3, #640
  75 0020 CDE90155 		strd	r5, r5, [sp, #4]
  76 0024 3020     		movs	r0, #48
  77              	.LVL1:
  78 0026 1D4E     		ldr	r6, .L8+12
  79              	.LBB57:
  80              	.LBB58:
  81              	.LBB59:
  82              	.LBB60:
  83              		.file 3 "../lib/e-puck2_main-processor/ChibiOS//os/rt/include/chsys.h"
  84              		.loc 3 367 0
  85 0028 1D4F     		ldr	r7, .L8+16
  86              	.LBE60:
  87              	.LBE59:
  88              	.LBE58:
  89              	.LBE57:
  90              		.loc 1 114 0
  91 002a FFF7FEFF 		bl	po8030_advanced_config
  92              	.LVL2:
  93              		.loc 1 115 0
  94 002e FFF7FEFF 		bl	dcmi_enable_double_buffering
  95              	.LVL3:
  96              		.loc 1 116 0
  97 0032 0020     		movs	r0, #0
  98 0034 FFF7FEFF 		bl	dcmi_set_capture_mode
  99              	.LVL4:
 100              	.LBB78:
 101              	.LBB75:
 102              	.LBB65:
 103              	.LBB66:
 104              		.file 4 "../lib/e-puck2_main-processor/ChibiOS//os/rt/include/chbsem.h"
 105              		.loc 4 271 0
 106 0038 B046     		mov	r8, r6
 107              	.LBE66:
 108              	.LBE65:
 109              	.LBE75:
 110              	.LBE78:
 111              		.loc 1 117 0
 112 003a FFF7FEFF 		bl	dcmi_prepare
 113              	.LVL5:
 114 003e 13E0     		b	.L4
ARM GAS  C:\Users\Ben\AppData\Local\Temp\ccpZ1hzB.s 			page 3


 115              	.LVL6:
 116              	.L2:
 117              	.LBB79:
 118              	.LBB76:
 119              		.loc 4 286 0
 120 0040 FFF7FEFF 		bl	chSchRescheduleS
 121              	.LVL7:
 122              	.LBB68:
 123              	.LBB64:
 124              		.loc 3 360 0
 125 0044 FFF7FEFF 		bl	_dbg_check_unlock
 126              	.LVL8:
 127              		.loc 3 361 0
 128 0048 FFF7FEFF 		bl	_stats_stop_measure_crit_thd
 129              	.LVL9:
 130              		.loc 3 367 0
 131 004c 2368     		ldr	r3, [r4]
 132 004e A342     		cmp	r3, r4
 133 0050 07D0     		beq	.L3
 134 0052 A269     		ldr	r2, [r4, #24]
 135 0054 9B68     		ldr	r3, [r3, #8]
 136 0056 9268     		ldr	r2, [r2, #8]
 137 0058 9A42     		cmp	r2, r3
 138 005a 02D2     		bcs	.L3
 139 005c 3846     		mov	r0, r7
 140 005e FFF7FEFF 		bl	chSysHalt
 141              	.LVL10:
 142              	.L3:
 143              	.LBB61:
 144              	.LBB62:
 145              	.LBB63:
 146              		.file 5 "../lib/e-puck2_main-processor/ChibiOS//os/ext/CMSIS/include/core_cmFunc.h"
 147              		.loc 5 546 0
 148 0062 0023     		movs	r3, #0
 149              		.syntax unified
 150              	@ 546 "../lib/e-puck2_main-processor/ChibiOS//os/ext/CMSIS/include/core_cmFunc.h" 1
 151 0064 83F31188 		MSR basepri, r3
 152              	@ 0 "" 2
 153              	.LVL11:
 154              		.thumb
 155              		.syntax unified
 156              	.L4:
 157              	.LBE63:
 158              	.LBE62:
 159              	.LBE61:
 160              	.LBE64:
 161              	.LBE68:
 162              	.LBE76:
 163              	.LBE79:
 164              		.loc 1 121 0 discriminator 1
 165 0068 FFF7FEFF 		bl	dcmi_capture_start
 166              	.LVL12:
 167              		.loc 1 123 0 discriminator 1
 168 006c FFF7FEFF 		bl	wait_image_ready
 169              	.LVL13:
 170              	.LBB80:
 171              	.LBB77:
ARM GAS  C:\Users\Ben\AppData\Local\Temp\ccpZ1hzB.s 			page 4


 172              	.LBB69:
 173              	.LBB70:
 174              	.LBB71:
 175              	.LBB72:
 176              	.LBB73:
 177              		.loc 5 546 0 discriminator 1
 178              		.syntax unified
 179              	@ 546 "../lib/e-puck2_main-processor/ChibiOS//os/ext/CMSIS/include/core_cmFunc.h" 1
 180 0070 85F31188 		MSR basepri, r5
 181              	@ 0 "" 2
 182              	.LVL14:
 183              		.thumb
 184              		.syntax unified
 185              	.LBE73:
 186              	.LBE72:
 187              	.LBE71:
 188              		.loc 3 349 0 discriminator 1
 189 0074 FFF7FEFF 		bl	_stats_start_measure_crit_thd
 190              	.LVL15:
 191              		.loc 3 350 0 discriminator 1
 192 0078 FFF7FEFF 		bl	_dbg_check_lock
 193              	.LVL16:
 194              	.LBE70:
 195              	.LBE69:
 196              	.LBB74:
 197              	.LBB67:
 198              		.loc 4 268 0 discriminator 1
 199 007c FFF7FEFF 		bl	chDbgCheckClassI
 200              	.LVL17:
 201              		.loc 4 270 0 discriminator 1
 202 0080 B368     		ldr	r3, [r6, #8]
 203 0082 002B     		cmp	r3, #0
 204 0084 DCDC     		bgt	.L2
 205              		.loc 4 271 0
 206 0086 4046     		mov	r0, r8
 207 0088 FFF7FEFF 		bl	chSemSignalI
 208              	.LVL18:
 209 008c D8E7     		b	.L2
 210              	.L9:
 211 008e 00BF     		.align	2
 212              	.L8:
 213 0090 00000000 		.word	ch
 214 0094 00000000 		.word	__stack_chk_guard
 215 0098 00000000 		.word	.LANCHOR0
 216 009c 00000000 		.word	.LANCHOR1
 217 00a0 00000000 		.word	.LANCHOR2
 218              	.LBE67:
 219              	.LBE74:
 220              	.LBE77:
 221              	.LBE80:
 222              		.cfi_endproc
 223              	.LFE258:
 224              		.size	CaptureImage, .-CaptureImage
 225              		.section	.text.extract_line_width,"ax",%progbits
 226              		.align	1
 227              		.p2align 4,,15
 228              		.global	extract_line_width
ARM GAS  C:\Users\Ben\AppData\Local\Temp\ccpZ1hzB.s 			page 5


 229              		.syntax unified
 230              		.thumb
 231              		.thumb_func
 232              		.fpu fpv4-sp-d16
 233              		.type	extract_line_width, %function
 234              	extract_line_width:
 235              	.LFB257:
 236              		.loc 1 23 0
 237              		.cfi_startproc
 238              		@ args = 0, pretend = 0, frame = 8
 239              		@ frame_needed = 0, uses_anonymous_args = 0
 240              	.LVL19:
 241 0000 F0B5     		push	{r4, r5, r6, r7, lr}
 242              		.cfi_def_cfa_offset 20
 243              		.cfi_offset 4, -20
 244              		.cfi_offset 5, -16
 245              		.cfi_offset 6, -12
 246              		.cfi_offset 7, -8
 247              		.cfi_offset 14, -4
 248 0002 354C     		ldr	r4, .L39
 249 0004 83B0     		sub	sp, sp, #12
 250              		.cfi_def_cfa_offset 32
 251              		.loc 1 23 0
 252 0006 2368     		ldr	r3, [r4]
 253 0008 0193     		str	r3, [sp, #4]
 254              	.LVL20:
 255 000a 00F27F25 		addw	r5, r0, #639
 256 000e 431E     		subs	r3, r0, #1
 257              		.loc 1 27 0
 258 0010 0022     		movs	r2, #0
 259              	.LVL21:
 260              	.L11:
 261              	.LBB81:
 262              		.loc 1 33 0 discriminator 3
 263 0012 13F8011F 		ldrb	r1, [r3, #1]!	@ zero_extendqisi2
 264              		.loc 1 32 0 discriminator 3
 265 0016 9D42     		cmp	r5, r3
 266              		.loc 1 33 0 discriminator 3
 267 0018 0A44     		add	r2, r2, r1
 268              	.LVL22:
 269              		.loc 1 32 0 discriminator 3
 270 001a FAD1     		bne	.L11
 271              	.LBE81:
 272              		.loc 1 35 0
 273 001c 2F4B     		ldr	r3, .L39+4
 274 001e 0578     		ldrb	r5, [r0]	@ zero_extendqisi2
 275 0020 A3FB0232 		umull	r3, r2, r3, r2
 276              	.LVL23:
 277 0024 520A     		lsrs	r2, r2, #9
 278              	.LVL24:
 279              		.loc 1 25 0
 280 0026 0021     		movs	r1, #0
 281              		.loc 1 40 0
 282 0028 40F27A26 		movw	r6, #634
 283              	.LVL25:
 284              	.L12:
 285 002c 4B1C     		adds	r3, r1, #1
ARM GAS  C:\Users\Ben\AppData\Local\Temp\ccpZ1hzB.s 			page 6


 286              		.loc 1 44 0
 287 002e 9542     		cmp	r5, r2
 288 0030 9BB2     		uxth	r3, r3
 289 0032 1FD9     		bls	.L14
 290              	.L36:
 291              		.loc 1 44 0 is_stmt 0 discriminator 1
 292 0034 4518     		adds	r5, r0, r1
 293 0036 6D79     		ldrb	r5, [r5, #5]	@ zero_extendqisi2
 294 0038 9542     		cmp	r5, r2
 295 003a 1BD2     		bcs	.L14
 296              	.LVL26:
 297              		.loc 1 52 0 is_stmt 1
 298 003c B342     		cmp	r3, r6
 299 003e 25D8     		bhi	.L13
 300              		.loc 1 52 0 is_stmt 0 discriminator 1
 301 0040 21B3     		cbz	r1, .L13
 302 0042 03F1FF3C 		add	ip, r3, #-1
 303 0046 8444     		add	ip, ip, r0
 304              	.LVL27:
 305              	.L22:
 306              		.loc 1 58 0 is_stmt 1
 307 0048 1CF8015F 		ldrb	r5, [ip, #1]!	@ zero_extendqisi2
 308 004c 9542     		cmp	r5, r2
 309 004e 9FB2     		uxth	r7, r3
 310 0050 15D9     		bls	.L17
 311              		.loc 1 58 0 is_stmt 0 discriminator 1
 312 0052 1CF805EC 		ldrb	lr, [ip, #-5]	@ zero_extendqisi2
 313 0056 9645     		cmp	lr, r2
 314 0058 11D2     		bcs	.L17
 315              	.LVL28:
 316              		.loc 1 77 0 is_stmt 1
 317 005a A7EB010C 		sub	ip, r7, r1
 318 005e BCF1270F 		cmp	ip, #39
 319 0062 3B46     		mov	r3, r7
 320 0064 21DC     		bgt	.L35
 321              	.LVL29:
 322              		.loc 1 40 0
 323 0066 B742     		cmp	r7, r6
 324 0068 10D8     		bhi	.L13
 325 006a 3946     		mov	r1, r7
 326 006c 4B1C     		adds	r3, r1, #1
 327              		.loc 1 44 0
 328 006e 9542     		cmp	r5, r2
 329 0070 9BB2     		uxth	r3, r3
 330 0072 DFD8     		bhi	.L36
 331              	.LVL30:
 332              	.L14:
 333              		.loc 1 40 0 discriminator 1
 334 0074 B342     		cmp	r3, r6
 335 0076 09D8     		bhi	.L13
 336 0078 C55C     		ldrb	r5, [r0, r3]	@ zero_extendqisi2
 337              	.LVL31:
 338              		.loc 1 40 0 is_stmt 0
 339 007a 1946     		mov	r1, r3
 340 007c D6E7     		b	.L12
 341              	.LVL32:
 342              	.L17:
ARM GAS  C:\Users\Ben\AppData\Local\Temp\ccpZ1hzB.s 			page 7


 343 007e 0137     		adds	r7, r7, #1
 344 0080 BFB2     		uxth	r7, r7
 345              	.LVL33:
 346              		.loc 1 56 0 is_stmt 1
 347 0082 B7F5207F 		cmp	r7, #640
 348 0086 03F10103 		add	r3, r3, #1
 349 008a DDD1     		bne	.L22
 350              	.LVL34:
 351              	.L13:
 352              		.loc 1 91 0
 353 008c 144B     		ldr	r3, .L39+8
 354 008e 1888     		ldrh	r0, [r3]
 355              	.LVL35:
 356              		.loc 1 99 0
 357 0090 A0F1AA03 		sub	r3, r0, #170
 358 0094 E62B     		cmp	r3, #230
 359              		.loc 1 100 0
 360 0096 134B     		ldr	r3, .L39+12
 361              		.loc 1 99 0
 362 0098 14D9     		bls	.L37
 363              	.LVL36:
 364              	.L23:
 365              		.loc 1 100 0
 366 009a 0022     		movs	r2, #0
 367 009c 1A60     		str	r2, [r3]	@ float
 368              	.L24:
 369              		.loc 1 105 0
 370 009e 019A     		ldr	r2, [sp, #4]
 371 00a0 2368     		ldr	r3, [r4]
 372 00a2 9A42     		cmp	r2, r3
 373 00a4 15D1     		bne	.L38
 374 00a6 03B0     		add	sp, sp, #12
 375              		.cfi_remember_state
 376              		.cfi_def_cfa_offset 20
 377              		@ sp needed
 378 00a8 F0BD     		pop	{r4, r5, r6, r7, pc}
 379              	.LVL37:
 380              	.L35:
 381              		.cfi_restore_state
 382              		.loc 1 93 0
 383 00aa 781A     		subs	r0, r7, r1
 384              	.LVL38:
 385              		.loc 1 94 0
 386 00ac 0B44     		add	r3, r3, r1
 387 00ae 0E4A     		ldr	r2, .L39+16
 388              	.LVL39:
 389              		.loc 1 93 0
 390 00b0 0B49     		ldr	r1, .L39+8
 391 00b2 80B2     		uxth	r0, r0
 392              	.LVL40:
 393              		.loc 1 94 0
 394 00b4 5B10     		asrs	r3, r3, #1
 395 00b6 1380     		strh	r3, [r2]	@ movhi
 396              		.loc 1 99 0
 397 00b8 A0F1AA03 		sub	r3, r0, #170
 398 00bc E62B     		cmp	r3, #230
 399              		.loc 1 93 0
ARM GAS  C:\Users\Ben\AppData\Local\Temp\ccpZ1hzB.s 			page 8


 400 00be 0880     		strh	r0, [r1]	@ movhi
 401              		.loc 1 100 0
 402 00c0 084B     		ldr	r3, .L39+12
 403              		.loc 1 99 0
 404 00c2 EAD8     		bhi	.L23
 405              	.LVL41:
 406              	.L37:
 407              		.loc 1 97 0
 408 00c4 07EE900A 		vmov	s15, r0	@ int
 409 00c8 F8EE677A 		vcvt.f32.u32	s15, s15
 410 00cc C3ED007A 		vstr.32	s15, [r3]
 411 00d0 E5E7     		b	.L24
 412              	.L38:
 413              		.loc 1 105 0
 414 00d2 FFF7FEFF 		bl	__stack_chk_fail
 415              	.LVL42:
 416              	.L40:
 417 00d6 00BF     		.align	2
 418              	.L39:
 419 00d8 00000000 		.word	__stack_chk_guard
 420 00dc CDCCCCCC 		.word	-858993459
 421 00e0 00000000 		.word	.LANCHOR3
 422 00e4 00000000 		.word	.LANCHOR5
 423 00e8 00000000 		.word	.LANCHOR4
 424              		.cfi_endproc
 425              	.LFE257:
 426              		.size	extract_line_width, .-extract_line_width
 427              		.section	.text.ProcessImage,"ax",%progbits
 428              		.align	1
 429              		.p2align 4,,15
 430              		.syntax unified
 431              		.thumb
 432              		.thumb_func
 433              		.fpu fpv4-sp-d16
 434              		.type	ProcessImage, %function
 435              	ProcessImage:
 436              	.LFB259:
 437              		.loc 1 131 0
 438              		.cfi_startproc
 439              		@ args = 0, pretend = 0, frame = 648
 440              		@ frame_needed = 0, uses_anonymous_args = 0
 441              	.LVL43:
 442 0000 70B5     		push	{r4, r5, r6, lr}
 443              		.cfi_def_cfa_offset 16
 444              		.cfi_offset 4, -16
 445              		.cfi_offset 5, -12
 446              		.cfi_offset 6, -8
 447              		.cfi_offset 14, -4
 448              	.LBB82:
 449              	.LBB83:
 450              		.loc 2 135 0
 451 0002 174A     		ldr	r2, .L52
 452              	.LBE83:
 453              	.LBE82:
 454              		.loc 1 131 0
 455 0004 174B     		ldr	r3, .L52+4
 456              	.LBB85:
ARM GAS  C:\Users\Ben\AppData\Local\Temp\ccpZ1hzB.s 			page 9


 457              	.LBB84:
 458              		.loc 2 135 0
 459 0006 9269     		ldr	r2, [r2, #24]
 460 0008 1749     		ldr	r1, .L52+8
 461 000a 9161     		str	r1, [r2, #24]
 462              	.LBE84:
 463              	.LBE85:
 464              		.loc 1 131 0
 465 000c ADF5227D 		sub	sp, sp, #648
 466              		.cfi_def_cfa_offset 664
 467              		.loc 1 137 0
 468 0010 01AC     		add	r4, sp, #4
 469              		.loc 1 131 0
 470 0012 1B68     		ldr	r3, [r3]
 471 0014 A193     		str	r3, [sp, #644]
 472              		.loc 1 137 0
 473 0016 2046     		mov	r0, r4
 474              	.LVL44:
 475 0018 4FF42072 		mov	r2, #640
 476 001c 0021     		movs	r1, #0
 477 001e FFF7FEFF 		bl	memset
 478              	.LVL45:
 479              	.LBB86:
 480              	.LBB87:
 481              		.loc 4 143 0
 482 0022 124E     		ldr	r6, .L52+12
 483              	.LBE87:
 484              	.LBE86:
 485              		.loc 1 139 0
 486 0024 0125     		movs	r5, #1
 487              	.LVL46:
 488              	.L44:
 489              	.LBB89:
 490              	.LBB88:
 491              		.loc 4 143 0
 492 0026 3046     		mov	r0, r6
 493 0028 FFF7FEFF 		bl	chSemWait
 494              	.LVL47:
 495              	.LBE88:
 496              	.LBE89:
 497              		.loc 1 145 0
 498 002c FFF7FEFF 		bl	dcmi_get_last_image_ptr
 499              	.LVL48:
 500 0030 0023     		movs	r3, #0
 501              	.LVL49:
 502              	.L42:
 503              	.LBB90:
 504              		.loc 1 151 0 discriminator 3
 505 0032 C25C     		ldrb	r2, [r0, r3]	@ zero_extendqisi2
 506 0034 C3F34E01 		ubfx	r1, r3, #1, #15
 507 0038 0233     		adds	r3, r3, #2
 508              	.LVL50:
 509 003a 22F00702 		bic	r2, r2, #7
 510              		.loc 1 148 0 discriminator 3
 511 003e B3F5A06F 		cmp	r3, #1280
 512              		.loc 1 151 0 discriminator 3
 513 0042 6254     		strb	r2, [r4, r1]
ARM GAS  C:\Users\Ben\AppData\Local\Temp\ccpZ1hzB.s 			page 10


 514              		.loc 1 148 0 discriminator 3
 515 0044 F5D1     		bne	.L42
 516              	.LBE90:
 517              		.loc 1 155 0
 518 0046 2046     		mov	r0, r4
 519              	.LVL51:
 520 0048 FFF7FEFF 		bl	extract_line_width
 521              	.LVL52:
 522              		.loc 1 158 0
 523 004c 15B9     		cbnz	r5, .L51
 524              	.L43:
 525              		.loc 1 163 0
 526 004e 85F00105 		eor	r5, r5, #1
 527              	.LVL53:
 528              		.loc 1 143 0
 529 0052 E8E7     		b	.L44
 530              	.L51:
 531              		.loc 1 160 0
 532 0054 4FF42071 		mov	r1, #640
 533 0058 2046     		mov	r0, r4
 534 005a FFF7FEFF 		bl	SendUint8ToComputer
 535              	.LVL54:
 536 005e F6E7     		b	.L43
 537              	.L53:
 538              		.align	2
 539              	.L52:
 540 0060 00000000 		.word	ch
 541 0064 00000000 		.word	__stack_chk_guard
 542 0068 00000000 		.word	.LANCHOR6
 543 006c 00000000 		.word	.LANCHOR1
 544              		.cfi_endproc
 545              	.LFE259:
 546              		.size	ProcessImage, .-ProcessImage
 547              		.section	.text.get_black_line,"ax",%progbits
 548              		.align	1
 549              		.p2align 4,,15
 550              		.global	get_black_line
 551              		.syntax unified
 552              		.thumb
 553              		.thumb_func
 554              		.fpu fpv4-sp-d16
 555              		.type	get_black_line, %function
 556              	get_black_line:
 557              	.LFB260:
 558              		.loc 1 167 0
 559              		.cfi_startproc
 560              		@ args = 0, pretend = 0, frame = 8
 561              		@ frame_needed = 0, uses_anonymous_args = 0
 562 0000 00B5     		push	{lr}
 563              		.cfi_def_cfa_offset 4
 564              		.cfi_offset 14, -4
 565 0002 084B     		ldr	r3, .L58
 566              		.loc 1 168 0
 567 0004 0849     		ldr	r1, .L58+4
 568              		.loc 1 167 0
 569 0006 1A68     		ldr	r2, [r3]
 570              		.loc 1 169 0
ARM GAS  C:\Users\Ben\AppData\Local\Temp\ccpZ1hzB.s 			page 11


 571 0008 91ED000A 		vldr.32	s0, [r1]
 572              		.loc 1 167 0
 573 000c 83B0     		sub	sp, sp, #12
 574              		.cfi_def_cfa_offset 16
 575              		.loc 1 167 0
 576 000e 0192     		str	r2, [sp, #4]
 577              		.loc 1 169 0
 578 0010 019A     		ldr	r2, [sp, #4]
 579 0012 1B68     		ldr	r3, [r3]
 580 0014 9A42     		cmp	r2, r3
 581 0016 02D1     		bne	.L57
 582 0018 03B0     		add	sp, sp, #12
 583              		.cfi_remember_state
 584              		.cfi_def_cfa_offset 4
 585              		@ sp needed
 586 001a 5DF804FB 		ldr	pc, [sp], #4
 587              	.L57:
 588              		.cfi_restore_state
 589 001e FFF7FEFF 		bl	__stack_chk_fail
 590              	.LVL55:
 591              	.L59:
 592 0022 00BF     		.align	2
 593              	.L58:
 594 0024 00000000 		.word	__stack_chk_guard
 595 0028 00000000 		.word	.LANCHOR5
 596              		.cfi_endproc
 597              	.LFE260:
 598              		.size	get_black_line, .-get_black_line
 599              		.section	.text.get_line_position,"ax",%progbits
 600              		.align	1
 601              		.p2align 4,,15
 602              		.global	get_line_position
 603              		.syntax unified
 604              		.thumb
 605              		.thumb_func
 606              		.fpu fpv4-sp-d16
 607              		.type	get_line_position, %function
 608              	get_line_position:
 609              	.LFB261:
 610              		.loc 1 171 0
 611              		.cfi_startproc
 612              		@ args = 0, pretend = 0, frame = 8
 613              		@ frame_needed = 0, uses_anonymous_args = 0
 614 0000 00B5     		push	{lr}
 615              		.cfi_def_cfa_offset 4
 616              		.cfi_offset 14, -4
 617 0002 074B     		ldr	r3, .L64
 618              		.loc 1 172 0
 619 0004 0749     		ldr	r1, .L64+4
 620              		.loc 1 171 0
 621 0006 1A68     		ldr	r2, [r3]
 622              		.loc 1 173 0
 623 0008 0888     		ldrh	r0, [r1]
 624              		.loc 1 171 0
 625 000a 83B0     		sub	sp, sp, #12
 626              		.cfi_def_cfa_offset 16
 627              		.loc 1 171 0
ARM GAS  C:\Users\Ben\AppData\Local\Temp\ccpZ1hzB.s 			page 12


 628 000c 0192     		str	r2, [sp, #4]
 629              		.loc 1 173 0
 630 000e 019A     		ldr	r2, [sp, #4]
 631 0010 1B68     		ldr	r3, [r3]
 632 0012 9A42     		cmp	r2, r3
 633 0014 02D1     		bne	.L63
 634 0016 03B0     		add	sp, sp, #12
 635              		.cfi_remember_state
 636              		.cfi_def_cfa_offset 4
 637              		@ sp needed
 638 0018 5DF804FB 		ldr	pc, [sp], #4
 639              	.L63:
 640              		.cfi_restore_state
 641 001c FFF7FEFF 		bl	__stack_chk_fail
 642              	.LVL56:
 643              	.L65:
 644              		.align	2
 645              	.L64:
 646 0020 00000000 		.word	__stack_chk_guard
 647 0024 00000000 		.word	.LANCHOR4
 648              		.cfi_endproc
 649              	.LFE261:
 650              		.size	get_line_position, .-get_line_position
 651              		.section	.text.process_image_start,"ax",%progbits
 652              		.align	1
 653              		.p2align 4,,15
 654              		.global	process_image_start
 655              		.syntax unified
 656              		.thumb
 657              		.thumb_func
 658              		.fpu fpv4-sp-d16
 659              		.type	process_image_start, %function
 660              	process_image_start:
 661              	.LFB262:
 662              		.loc 1 175 0
 663              		.cfi_startproc
 664              		@ args = 0, pretend = 0, frame = 8
 665              		@ frame_needed = 0, uses_anonymous_args = 0
 666 0000 30B5     		push	{r4, r5, lr}
 667              		.cfi_def_cfa_offset 12
 668              		.cfi_offset 4, -12
 669              		.cfi_offset 5, -8
 670              		.cfi_offset 14, -4
 671 0002 0E4C     		ldr	r4, .L70
 672              		.loc 1 176 0
 673 0004 0E4B     		ldr	r3, .L70+4
 674              		.loc 1 175 0
 675 0006 2268     		ldr	r2, [r4]
 676              		.loc 1 176 0
 677 0008 0E48     		ldr	r0, .L70+8
 678              		.loc 1 175 0
 679 000a 85B0     		sub	sp, sp, #20
 680              		.cfi_def_cfa_offset 32
 681              		.loc 1 176 0
 682 000c 0025     		movs	r5, #0
 683              		.loc 1 175 0
 684 000e 0392     		str	r2, [sp, #12]
ARM GAS  C:\Users\Ben\AppData\Local\Temp\ccpZ1hzB.s 			page 13


 685              		.loc 1 176 0
 686 0010 4FF4AF61 		mov	r1, #1400
 687 0014 4022     		movs	r2, #64
 688 0016 0095     		str	r5, [sp]
 689 0018 FFF7FEFF 		bl	chThdCreateStatic
 690              	.LVL57:
 691              		.loc 1 177 0
 692 001c 0A4B     		ldr	r3, .L70+12
 693 001e 0095     		str	r5, [sp]
 694 0020 4022     		movs	r2, #64
 695 0022 0A48     		ldr	r0, .L70+16
 696 0024 4FF41E71 		mov	r1, #632
 697 0028 FFF7FEFF 		bl	chThdCreateStatic
 698              	.LVL58:
 699              		.loc 1 178 0
 700 002c 039A     		ldr	r2, [sp, #12]
 701 002e 2368     		ldr	r3, [r4]
 702 0030 9A42     		cmp	r2, r3
 703 0032 01D1     		bne	.L69
 704 0034 05B0     		add	sp, sp, #20
 705              		.cfi_remember_state
 706              		.cfi_def_cfa_offset 12
 707              		@ sp needed
 708 0036 30BD     		pop	{r4, r5, pc}
 709              	.L69:
 710              		.cfi_restore_state
 711 0038 FFF7FEFF 		bl	__stack_chk_fail
 712              	.LVL59:
 713              	.L71:
 714              		.align	2
 715              	.L70:
 716 003c 00000000 		.word	__stack_chk_guard
 717 0040 00000000 		.word	ProcessImage
 718 0044 00000000 		.word	.LANCHOR7
 719 0048 00000000 		.word	CaptureImage
 720 004c 00000000 		.word	.LANCHOR8
 721              		.cfi_endproc
 722              	.LFE262:
 723              		.size	process_image_start, .-process_image_start
 724              		.section	.bss.black_line,"aw",%nobits
 725              		.align	2
 726              		.set	.LANCHOR5,. + 0
 727              		.type	black_line, %object
 728              		.size	black_line, 4
 729              	black_line:
 730 0000 00000000 		.space	4
 731              		.section	.bss.last_width.11339,"aw",%nobits
 732              		.align	1
 733              		.set	.LANCHOR3,. + 0
 734              		.type	last_width.11339, %object
 735              		.size	last_width.11339, 2
 736              	last_width.11339:
 737 0000 0000     		.space	2
 738              		.section	.bss.line_position,"aw",%nobits
 739              		.align	1
 740              		.set	.LANCHOR4,. + 0
 741              		.type	line_position, %object
ARM GAS  C:\Users\Ben\AppData\Local\Temp\ccpZ1hzB.s 			page 14


 742              		.size	line_position, 2
 743              	line_position:
 744 0000 0000     		.space	2
 745              		.section	.bss.waCaptureImage,"aw",%nobits
 746              		.align	3
 747              		.set	.LANCHOR8,. + 0
 748              		.type	waCaptureImage, %object
 749              		.size	waCaptureImage, 632
 750              	waCaptureImage:
 751 0000 00000000 		.space	632
 751      00000000 
 751      00000000 
 751      00000000 
 751      00000000 
 752              		.section	.bss.waProcessImage,"aw",%nobits
 753              		.align	3
 754              		.set	.LANCHOR7,. + 0
 755              		.type	waProcessImage, %object
 756              		.size	waProcessImage, 1400
 757              	waProcessImage:
 758 0000 00000000 		.space	1400
 758      00000000 
 758      00000000 
 758      00000000 
 758      00000000 
 759              		.section	.data.image_ready_sem,"aw",%progbits
 760              		.align	2
 761              		.set	.LANCHOR1,. + 0
 762              		.type	image_ready_sem, %object
 763              		.size	image_ready_sem, 12
 764              	image_ready_sem:
 765 0000 00000000 		.word	image_ready_sem
 766 0004 00000000 		.word	image_ready_sem
 767 0008 00000000 		.word	0
 768              		.section	.rodata.__FUNCTION__.11356,"a",%progbits
 769              		.align	2
 770              		.set	.LANCHOR0,. + 0
 771              		.type	__FUNCTION__.11356, %object
 772              		.size	__FUNCTION__.11356, 13
 773              	__FUNCTION__.11356:
 774 0000 43617074 		.ascii	"CaptureImage\000"
 774      75726549 
 774      6D616765 
 774      00
 775              		.section	.rodata.__FUNCTION__.11362,"a",%progbits
 776              		.align	2
 777              		.set	.LANCHOR6,. + 0
 778              		.type	__FUNCTION__.11362, %object
 779              		.size	__FUNCTION__.11362, 13
 780              	__FUNCTION__.11362:
 781 0000 50726F63 		.ascii	"ProcessImage\000"
 781      65737349 
 781      6D616765 
 781      00
 782              		.section	.rodata.__func__.7153,"a",%progbits
 783              		.align	2
 784              		.set	.LANCHOR2,. + 0
ARM GAS  C:\Users\Ben\AppData\Local\Temp\ccpZ1hzB.s 			page 15


 785              		.type	__func__.7153, %object
 786              		.size	__func__.7153, 12
 787              	__func__.7153:
 788 0000 63685379 		.ascii	"chSysUnlock\000"
 788      73556E6C 
 788      6F636B00 
 789              		.text
 790              	.Letext0:
 791              		.file 6 "c:\\users\\ben\\desktop\\eclipse_e-puck2\\tools\\gcc-arm-none-eabi-7-2017-q4-major-win32\
 792              		.file 7 "c:\\users\\ben\\desktop\\eclipse_e-puck2\\tools\\gcc-arm-none-eabi-7-2017-q4-major-win32\
 793              		.file 8 "c:\\users\\ben\\desktop\\eclipse_e-puck2\\tools\\gcc-arm-none-eabi-7-2017-q4-major-win32\
 794              		.file 9 "../lib/e-puck2_main-processor/ChibiOS//os/rt/ports/ARMCMx/compilers/GCC/chtypes.h"
 795              		.file 10 "../lib/e-puck2_main-processor/ChibiOS//os/rt/include/chsystypes.h"
 796              		.file 11 "../lib/e-puck2_main-processor/ChibiOS//os/rt/include/chschd.h"
 797              		.file 12 "../lib/e-puck2_main-processor/ChibiOS//os/ext/CMSIS/include/core_cm4.h"
 798              		.file 13 "../lib/e-puck2_main-processor/ChibiOS//os/ext/CMSIS/ST/system_stm32f4xx.h"
 799              		.file 14 "../lib/e-puck2_main-processor/ChibiOS//os/ext/CMSIS/ST/stm32f407xx.h"
 800              		.file 15 "../lib/e-puck2_main-processor/ChibiOS//os/rt/ports/ARMCMx/chcore.h"
 801              		.file 16 "../lib/e-puck2_main-processor/ChibiOS//os/rt/ports/ARMCMx/chcore_v7m.h"
 802              		.file 17 "../lib/e-puck2_main-processor/ChibiOS//os/rt/include/chdebug.h"
 803              		.file 18 "../lib/e-puck2_main-processor/ChibiOS//os/rt/include/chtm.h"
 804              		.file 19 "../lib/e-puck2_main-processor/ChibiOS//os/rt/include/chstats.h"
 805              		.file 20 "../lib/e-puck2_main-processor/ChibiOS//os/rt/include/chsem.h"
 806              		.file 21 "../lib/e-puck2_main-processor/ChibiOS//os/rt/include/chmtx.h"
 807              		.file 22 "../lib/e-puck2_main-processor/ChibiOS//os/rt/include/chevents.h"
 808              		.file 23 "../lib/e-puck2_main-processor/ChibiOS//os/rt/include/chqueues.h"
 809              		.file 24 "../lib/e-puck2_main-processor/ChibiOS//os/hal/ports/STM32/STM32F4xx/stm32_dma.h"
 810              		.file 25 "../lib/e-puck2_main-processor/ChibiOS//os/hal/include/hal_ioblock.h"
 811              		.file 26 "../lib/e-puck2_main-processor/ChibiOS//os/hal/ports/STM32/LLD/GPIOv2/pal_lld.h"
 812              		.file 27 "../lib/e-puck2_main-processor/ChibiOS//os/hal/include/adc.h"
 813              		.file 28 "../lib/e-puck2_main-processor/ChibiOS//os/hal/ports/STM32/STM32F4xx/adc_lld.h"
 814              		.file 29 "../lib/e-puck2_main-processor/ChibiOS//os/hal/include/can.h"
 815              		.file 30 "../lib/e-puck2_main-processor/ChibiOS//os/hal/ports/STM32/LLD/can_lld.h"
 816              		.file 31 "../lib/e-puck2_main-processor/ChibiOS//os/hal/include/dac.h"
 817              		.file 32 "../lib/e-puck2_main-processor/ChibiOS//os/hal/ports/STM32/LLD/DACv1/dac_lld.h"
 818              		.file 33 "../lib/e-puck2_main-processor/ChibiOS//os/hal/include/ext.h"
 819              		.file 34 "../lib/e-puck2_main-processor/ChibiOS//os/hal/ports/STM32/LLD/ext_lld.h"
 820              		.file 35 "../lib/e-puck2_main-processor/ChibiOS//os/hal/include/gpt.h"
 821              		.file 36 "../lib/e-puck2_main-processor/ChibiOS//os/hal/ports/STM32/LLD/TIMv1/gpt_lld.h"
 822              		.file 37 "../lib/e-puck2_main-processor/ChibiOS//os/hal/ports/STM32/LLD/TIMv1/stm32_tim.h"
 823              		.file 38 "../lib/e-puck2_main-processor/ChibiOS//os/hal/include/i2c.h"
 824              		.file 39 "../lib/e-puck2_main-processor/ChibiOS//os/hal/ports/STM32/LLD/I2Cv1/i2c_lld.h"
 825              		.file 40 "../lib/e-puck2_main-processor/ChibiOS//os/hal/include/i2s.h"
 826              		.file 41 "../lib/e-puck2_main-processor/ChibiOS//os/hal/ports/STM32/LLD/SPIv1/i2s_lld.h"
 827              		.file 42 "../lib/e-puck2_main-processor/ChibiOS//os/hal/include/pwm.h"
 828              		.file 43 "../lib/e-puck2_main-processor/ChibiOS//os/hal/ports/STM32/LLD/TIMv1/pwm_lld.h"
 829              		.file 44 "../lib/e-puck2_main-processor/ChibiOS//os/hal/include/serial.h"
 830              		.file 45 "../lib/e-puck2_main-processor/ChibiOS//os/hal/ports/STM32/LLD/USARTv1/serial_lld.h"
 831              		.file 46 "../lib/e-puck2_main-processor/ChibiOS//os/hal/include/sdc.h"
 832              		.file 47 "../lib/e-puck2_main-processor/ChibiOS//os/hal/ports/STM32/LLD/sdc_lld.h"
 833              		.file 48 "../lib/e-puck2_main-processor/ChibiOS//os/hal/include/spi.h"
 834              		.file 49 "../lib/e-puck2_main-processor/ChibiOS//os/hal/ports/STM32/LLD/SPIv1/spi_lld.h"
 835              		.file 50 "../lib/e-puck2_main-processor/ChibiOS//os/hal/include/usb.h"
 836              		.file 51 "../lib/e-puck2_main-processor/ChibiOS//os/hal/ports/STM32/LLD/OTGv1/usb_lld.h"
 837              		.file 52 "../lib/e-puck2_main-processor/ChibiOS//os/hal/ports/STM32/LLD/OTGv1/stm32_otg.h"
 838              		.file 53 "../lib/e-puck2_main-processor/ChibiOS//os/hal/include/serial_usb.h"
 839              		.file 54 "../lib/e-puck2_main-processor/src/usbcfg.h"
ARM GAS  C:\Users\Ben\AppData\Local\Temp\ccpZ1hzB.s 			page 16


 840              		.file 55 "../lib/e-puck2_main-processor/ChibiOS_ext/os/hal/include/../ports/STM32/STM32F4xx/dcmi_l
 841              		.file 56 "../lib/e-puck2_main-processor/src/camera/po8030.h"
 842              		.file 57 "../lib/e-puck2_main-processor/src/camera/dcmi_camera.h"
 843              		.file 58 "c:\\users\\ben\\desktop\\eclipse_e-puck2\\tools\\gcc-arm-none-eabi-7-2017-q4-major-win32
 844              		.file 59 "c:\\users\\ben\\desktop\\eclipse_e-puck2\\tools\\gcc-arm-none-eabi-7-2017-q4-major-win32
 845              		.file 60 "c:\\users\\ben\\desktop\\eclipse_e-puck2\\tools\\gcc-arm-none-eabi-7-2017-q4-major-win32
 846              		.file 61 "../lib/e-puck2_main-processor/src/msgbus/messagebus.h"
 847              		.file 62 "c:\\users\\ben\\desktop\\eclipse_e-puck2\\tools\\gcc-arm-none-eabi-7-2017-q4-major-win32
 848              		.file 63 "c:\\users\\ben\\desktop\\eclipse_e-puck2\\tools\\gcc-arm-none-eabi-7-2017-q4-major-win32
 849              		.file 64 "../lib/e-puck2_main-processor/src/parameter/parameter.h"
 850              		.file 65 "./main.h"
 851              		.file 66 "../lib/e-puck2_main-processor/ChibiOS//os/rt/include/chthreads.h"
 852              		.file 67 "<built-in>"